target datalayout = "e-m:e-p270:32:32-p271:32:32-p272:64:64-i64:64-i128:128-f80:128-n8:16:32:64-S128"
target triple = "x86_64-pc-linux-gnu"

%"class.std::__cxx11::basic_string" = type { %"struct.std::__cxx11::basic_string<char>::_Alloc_hider", i64, %union.anon }
%"struct.std::__cxx11::basic_string<char>::_Alloc_hider" = type { ptr }
%union.anon = type { i64, [8 x i8] }
%class.cmFindBase = type { ptr, %class.cmFindCommon, %"class.std::__cxx11::basic_string", %"class.std::__cxx11::basic_string", i32, %"class.std::__cxx11::basic_string", %"class.std::vector", i8, i8, %"class.std::__cxx11::basic_string", i8, i8, i8, i8, %"class.std::__cxx11::basic_string" }
%class.cmFindCommon = type { %"class.std::vector", %"class.std::vector", %"class.std::__cxx11::basic_string", i32, i8, i8, i8, i8, i8, i8, i8, i8, i32, %"class.std::vector", %"class.std::map", %"class.std::vector.6", %"class.std::map.11", %"class.std::map.19", %"class.std::vector", %"class.std::set", i8, i8, i8, i8, i8, i8, ptr, ptr }
%"class.std::map" = type { %"class.std::_Rb_tree" }
%"class.std::_Rb_tree" = type { %"struct.std::_Rb_tree<cmFindCommon::PathGroup, std::pair<const cmFindCommon::PathGroup, std::vector<cmFindCommon::PathLabel>>, std::_Select1st<std::pair<const cmFindCommon::PathGroup, std::vector<cmFindCommon::PathLabel>>>, std::less<cmFindCommon::PathGroup>>::_Rb_tree_impl" }
%"struct.std::_Rb_tree<cmFindCommon::PathGroup, std::pair<const cmFindCommon::PathGroup, std::vector<cmFindCommon::PathLabel>>, std::_Select1st<std::pair<const cmFindCommon::PathGroup, std::vector<cmFindCommon::PathLabel>>>, std::less<cmFindCommon::PathGroup>>::_Rb_tree_impl" = type { %"struct.std::_Rb_tree_key_compare", %"struct.std::_Rb_tree_header" }
%"struct.std::_Rb_tree_key_compare" = type { %"struct.std::less" }
%"struct.std::less" = type { i8 }
%"struct.std::_Rb_tree_header" = type { %"struct.std::_Rb_tree_node_base", i64 }
%"struct.std::_Rb_tree_node_base" = type { i32, ptr, ptr, ptr }
%"class.std::vector.6" = type { %"struct.std::_Vector_base.7" }
%"struct.std::_Vector_base.7" = type { %"struct.std::_Vector_base<cmFindCommon::PathGroup, std::allocator<cmFindCommon::PathGroup>>::_Vector_impl" }
%"struct.std::_Vector_base<cmFindCommon::PathGroup, std::allocator<cmFindCommon::PathGroup>>::_Vector_impl" = type { %"struct.std::_Vector_base<cmFindCommon::PathGroup, std::allocator<cmFindCommon::PathGroup>>::_Vector_impl_data" }
%"struct.std::_Vector_base<cmFindCommon::PathGroup, std::allocator<cmFindCommon::PathGroup>>::_Vector_impl_data" = type { ptr, ptr, ptr }
%"class.std::map.11" = type { %"class.std::_Rb_tree.12" }
%"class.std::_Rb_tree.12" = type { %"struct.std::_Rb_tree<std::__cxx11::basic_string<char>, std::pair<const std::__cxx11::basic_string<char>, cmFindCommon::PathLabel>, std::_Select1st<std::pair<const std::__cxx11::basic_string<char>, cmFindCommon::PathLabel>>, std::less<std::__cxx11::basic_string<char>>>::_Rb_tree_impl" }
%"struct.std::_Rb_tree<std::__cxx11::basic_string<char>, std::pair<const std::__cxx11::basic_string<char>, cmFindCommon::PathLabel>, std::_Select1st<std::pair<const std::__cxx11::basic_string<char>, cmFindCommon::PathLabel>>, std::less<std::__cxx11::basic_string<char>>>::_Rb_tree_impl" = type { %"struct.std::_Rb_tree_key_compare.16", %"struct.std::_Rb_tree_header" }
%"struct.std::_Rb_tree_key_compare.16" = type { %"struct.std::less.17" }
%"struct.std::less.17" = type { i8 }
%"class.std::map.19" = type { %"class.std::_Rb_tree.20" }
%"class.std::_Rb_tree.20" = type { %"struct.std::_Rb_tree<cmFindCommon::PathLabel, std::pair<const cmFindCommon::PathLabel, cmSearchPath>, std::_Select1st<std::pair<const cmFindCommon::PathLabel, cmSearchPath>>, std::less<cmFindCommon::PathLabel>>::_Rb_tree_impl" }
%"struct.std::_Rb_tree<cmFindCommon::PathLabel, std::pair<const cmFindCommon::PathLabel, cmSearchPath>, std::_Select1st<std::pair<const cmFindCommon::PathLabel, cmSearchPath>>, std::less<cmFindCommon::PathLabel>>::_Rb_tree_impl" = type { %"struct.std::_Rb_tree_key_compare.24", %"struct.std::_Rb_tree_header" }
%"struct.std::_Rb_tree_key_compare.24" = type { %"struct.std::less.25" }
%"struct.std::less.25" = type { i8 }
%"class.std::set" = type { %"class.std::_Rb_tree.27" }
%"class.std::_Rb_tree.27" = type { %"struct.std::_Rb_tree<cmSearchPath::PathWithPrefix, cmSearchPath::PathWithPrefix, std::_Identity<cmSearchPath::PathWithPrefix>, std::less<cmSearchPath::PathWithPrefix>>::_Rb_tree_impl" }
%"struct.std::_Rb_tree<cmSearchPath::PathWithPrefix, cmSearchPath::PathWithPrefix, std::_Identity<cmSearchPath::PathWithPrefix>, std::less<cmSearchPath::PathWithPrefix>>::_Rb_tree_impl" = type { %"struct.std::_Rb_tree_key_compare.31", %"struct.std::_Rb_tree_header" }
%"struct.std::_Rb_tree_key_compare.31" = type { %"struct.std::less.32" }
%"struct.std::less.32" = type { i8 }
%"class.std::vector" = type { %"struct.std::_Vector_base" }
%"struct.std::_Vector_base" = type { %"struct.std::_Vector_base<std::__cxx11::basic_string<char>, std::allocator<std::__cxx11::basic_string<char>>>::_Vector_impl" }
%"struct.std::_Vector_base<std::__cxx11::basic_string<char>, std::allocator<std::__cxx11::basic_string<char>>>::_Vector_impl" = type { %"struct.std::_Vector_base<std::__cxx11::basic_string<char>, std::allocator<std::__cxx11::basic_string<char>>>::_Vector_impl_data" }
%"struct.std::_Vector_base<std::__cxx11::basic_string<char>, std::allocator<std::__cxx11::basic_string<char>>>::_Vector_impl_data" = type { ptr, ptr, ptr }

; Function Attrs: mustprogress uwtable
define dso_local void @_ZN20cmFindLibraryCommand17FindNormalLibraryB5cxx11Ev(ptr dead_on_unwind noalias writable sret(%"class.std::__cxx11::basic_string") align 8 %0, ptr noundef nonnull align 8 dereferenceable(600) %1) #4 align 2 {
  %3 = alloca ptr, align 8
  %4 = alloca ptr, align 8
  store ptr %0, ptr %3, align 8
  store ptr %1, ptr %4, align 8
  %5 = load ptr, ptr %4, align 8
  %6 = getelementptr inbounds %class.cmFindBase, ptr %5, i32 0, i32 7
  %7 = load i8, ptr %6, align 8
  %8 = trunc i8 %7 to i1
  br i1 %8, label %9, label %10

9:                                                ; preds = %2
  call void @_ZN20cmFindLibraryCommand28FindNormalLibraryNamesPerDirB5cxx11Ev(ptr dead_on_unwind writable sret(%"class.std::__cxx11::basic_string") align 8 %0, ptr noundef nonnull align 8 dereferenceable(600) %5)
  br label %11

10:                                               ; preds = %2
  call void @_ZN20cmFindLibraryCommand28FindNormalLibraryDirsPerNameB5cxx11Ev(ptr dead_on_unwind writable sret(%"class.std::__cxx11::basic_string") align 8 %0, ptr noundef nonnull align 8 dereferenceable(600) %5)
  br label %11

11:                                               ; preds = %10, %9
  ret void
}

; Function Attrs: mustprogress uwtable
define dso_local void @_ZN20cmFindLibraryCommand20FindFrameworkLibraryB5cxx11Ev(ptr dead_on_unwind noalias writable sret(%"class.std::__cxx11::basic_string") align 8 %0, ptr noundef nonnull align 8 dereferenceable(600) %1) #4 align 2 {
  %3 = alloca ptr, align 8
  %4 = alloca ptr, align 8
  store ptr %0, ptr %3, align 8
  store ptr %1, ptr %4, align 8
  %5 = load ptr, ptr %4, align 8
  %6 = getelementptr inbounds %class.cmFindBase, ptr %5, i32 0, i32 7
  %7 = load i8, ptr %6, align 8
  %8 = trunc i8 %7 to i1
  br i1 %8, label %9, label %10

9:                                                ; preds = %2
  call void @_ZN20cmFindLibraryCommand31FindFrameworkLibraryNamesPerDirB5cxx11Ev(ptr dead_on_unwind writable sret(%"class.std::__cxx11::basic_string") align 8 %0, ptr noundef nonnull align 8 dereferenceable(600) %5)
  br label %11

10:                                               ; preds = %2
  call void @_ZN20cmFindLibraryCommand31FindFrameworkLibraryDirsPerNameB5cxx11Ev(ptr dead_on_unwind writable sret(%"class.std::__cxx11::basic_string") align 8 %0, ptr noundef nonnull align 8 dereferenceable(600) %5)
  br label %11

11:                                               ; preds = %10, %9
  ret void
}

; Function Attrs: mustprogress uwtable
define dso_local void @_ZN20cmFindLibraryCommand11FindLibraryB5cxx11Ev(ptr dead_on_unwind noalias writable sret(%"class.std::__cxx11::basic_string") align 8 %0, ptr noundef nonnull align 8 dereferenceable(600) %1) #4 align 2 personality ptr @__gxx_personality_v0 {
  %3 = alloca ptr, align 8
  %4 = alloca ptr, align 8
  %5 = alloca i1, align 1
  %6 = alloca %"class.std::__cxx11::basic_string", align 8
  %7 = alloca ptr, align 8
  %8 = alloca i32, align 4
  %9 = alloca %"class.std::__cxx11::basic_string", align 8
  %10 = alloca %"class.std::__cxx11::basic_string", align 8
  store ptr %0, ptr %3, align 8
  store ptr %1, ptr %4, align 8
  %11 = load ptr, ptr %4, align 8
  store i1 false, ptr %5, align 1
  call void @_ZNSt7__cxx1112basic_stringIcSt11char_traitsIcESaIcEEC1Ev(ptr noundef nonnull align 8 dereferenceable(32) %0) #3
  %12 = getelementptr inbounds i8, ptr %11, i64 8
  %13 = getelementptr inbounds %class.cmFindCommon, ptr %12, i32 0, i32 20
  %14 = load i8, ptr %13, align 8
  %15 = trunc i8 %14 to i1
  br i1 %15, label %21, label %16

16:                                               ; preds = %2
  %17 = getelementptr inbounds i8, ptr %11, i64 8
  %18 = getelementptr inbounds %class.cmFindCommon, ptr %17, i32 0, i32 21
  %19 = load i8, ptr %18, align 1
  %20 = trunc i8 %19 to i1
  br i1 %20, label %21, label %28

21:                                               ; preds = %16, %2
  invoke void @_ZN20cmFindLibraryCommand20FindFrameworkLibraryB5cxx11Ev(ptr dead_on_unwind writable sret(%"class.std::__cxx11::basic_string") align 8 %6, ptr noundef nonnull align 8 dereferenceable(600) %11)
          to label %22 unwind label %24

22:                                               ; preds = %21
  %23 = call noundef nonnull align 8 dereferenceable(32) ptr @_ZNSt7__cxx1112basic_stringIcSt11char_traitsIcESaIcEEaSEOS4_(ptr noundef nonnull align 8 dereferenceable(32) %0, ptr noundef nonnull align 8 dereferenceable(32) %6) #3
  call void @_ZNSt7__cxx1112basic_stringIcSt11char_traitsIcESaIcEED1Ev(ptr noundef nonnull align 8 dereferenceable(32) %6) #3
  br label %28

24:                                               ; preds = %45, %35, %21
  %25 = landingpad { ptr, i32 }
          cleanup
  %26 = extractvalue { ptr, i32 } %25, 0
  store ptr %26, ptr %7, align 8
  %27 = extractvalue { ptr, i32 } %25, 1
  store i32 %27, ptr %8, align 4
  call void @_ZNSt7__cxx1112basic_stringIcSt11char_traitsIcESaIcEED1Ev(ptr noundef nonnull align 8 dereferenceable(32) %0) #3
  br label %52

28:                                               ; preds = %22, %16
  %29 = call noundef zeroext i1 @_ZNKSt7__cxx1112basic_stringIcSt11char_traitsIcESaIcEE5emptyEv(ptr noundef nonnull align 8 dereferenceable(32) %0) #3
  br i1 %29, label %30, label %38

30:                                               ; preds = %28
  %31 = getelementptr inbounds i8, ptr %11, i64 8
  %32 = getelementptr inbounds %class.cmFindCommon, ptr %31, i32 0, i32 21
  %33 = load i8, ptr %32, align 1
  %34 = trunc i8 %33 to i1
  br i1 %34, label %38, label %35

35:                                               ; preds = %30
  invoke void @_ZN20cmFindLibraryCommand17FindNormalLibraryB5cxx11Ev(ptr dead_on_unwind writable sret(%"class.std::__cxx11::basic_string") align 8 %9, ptr noundef nonnull align 8 dereferenceable(600) %11)
          to label %36 unwind label %24

36:                                               ; preds = %35
  %37 = call noundef nonnull align 8 dereferenceable(32) ptr @_ZNSt7__cxx1112basic_stringIcSt11char_traitsIcESaIcEEaSEOS4_(ptr noundef nonnull align 8 dereferenceable(32) %0, ptr noundef nonnull align 8 dereferenceable(32) %9) #3
  call void @_ZNSt7__cxx1112basic_stringIcSt11char_traitsIcESaIcEED1Ev(ptr noundef nonnull align 8 dereferenceable(32) %9) #3
  br label %38

38:                                               ; preds = %36, %30, %28
  %39 = call noundef zeroext i1 @_ZNKSt7__cxx1112basic_stringIcSt11char_traitsIcESaIcEE5emptyEv(ptr noundef nonnull align 8 dereferenceable(32) %0) #3
  br i1 %39, label %40, label %48

40:                                               ; preds = %38
  %41 = getelementptr inbounds i8, ptr %11, i64 8
  %42 = getelementptr inbounds %class.cmFindCommon, ptr %41, i32 0, i32 22
  %43 = load i8, ptr %42, align 2
  %44 = trunc i8 %43 to i1
  br i1 %44, label %45, label %48

45:                                               ; preds = %40
  invoke void @_ZN20cmFindLibraryCommand20FindFrameworkLibraryB5cxx11Ev(ptr dead_on_unwind writable sret(%"class.std::__cxx11::basic_string") align 8 %10, ptr noundef nonnull align 8 dereferenceable(600) %11)
          to label %46 unwind label %24

46:                                               ; preds = %45
  %47 = call noundef nonnull align 8 dereferenceable(32) ptr @_ZNSt7__cxx1112basic_stringIcSt11char_traitsIcESaIcEEaSEOS4_(ptr noundef nonnull align 8 dereferenceable(32) %0, ptr noundef nonnull align 8 dereferenceable(32) %10) #3
  call void @_ZNSt7__cxx1112basic_stringIcSt11char_traitsIcESaIcEED1Ev(ptr noundef nonnull align 8 dereferenceable(32) %10) #3
  br label %48

48:                                               ; preds = %46, %40, %38
  store i1 true, ptr %5, align 1
  %49 = load i1, ptr %5, align 1
  br i1 %49, label %51, label %50

50:                                               ; preds = %48
  call void @_ZNSt7__cxx1112basic_stringIcSt11char_traitsIcESaIcEED1Ev(ptr noundef nonnull align 8 dereferenceable(32) %0) #3
  br label %51

51:                                               ; preds = %50, %48
  ret void

52:                                               ; preds = %24
  %53 = load ptr, ptr %7, align 8
  %54 = load i32, ptr %8, align 4
  %55 = insertvalue { ptr, i32 } poison, ptr %53, 0
  %56 = insertvalue { ptr, i32 } %55, i32 %54, 1
  resume { ptr, i32 } %56
}