; Function Attrs: mustprogress uwtable
define dso_local void @_ZN20cmFindLibraryCommand11FindLibraryB5cxx11Ev(ptr dead_on_unwind noalias nonnull writable sret(%"class.std::__cxx11::basic_string") align 8 %0, ptr noundef nonnull align 8 dereferenceable(600) %1) local_unnamed_addr #3 align 2 personality ptr @__gxx_personality_v0 {
  %3 = alloca %"class.std::__cxx11::basic_string", align 8
  %4 = alloca %"class.std::__cxx11::basic_string", align 8
  %5 = alloca %"class.std::__cxx11::basic_string", align 8
  tail call void @_ZNSt7__cxx1112basic_stringIcSt11char_traitsIcESaIcEEC1Ev(ptr noundef nonnull align 8 dereferenceable(32) %0) #17
  %6 = getelementptr inbounds i8, ptr %1, i64 368
  %7 = load i8, ptr %6, align 8
  %8 = and i8 %7, 1
  %.not = icmp eq i8 %8, 0
  br i1 %.not, label %9, label %13

9:                                                ; preds = %2
  %10 = getelementptr inbounds i8, ptr %1, i64 369
  %11 = load i8, ptr %10, align 1
  %12 = and i8 %11, 1
  %.not3 = icmp eq i8 %12, 0
  br i1 %.not3, label %22, label %13

13:                                               ; preds = %9, %2
  %14 = getelementptr inbounds i8, ptr %1, i64 520
  %15 = load i8, ptr %14, align 8, !noalias !31
  %16 = and i8 %15, 1
  %.not.i = icmp eq i8 %16, 0
  br i1 %.not.i, label %18, label %17

17:                                               ; preds = %13
  invoke void @_ZN20cmFindLibraryCommand31FindFrameworkLibraryNamesPerDirB5cxx11Ev(ptr dead_on_unwind nonnull writable sret(%"class.std::__cxx11::basic_string") align 8 %3, ptr noundef nonnull align 8 dereferenceable(600) %1)
          to label %_ZN20cmFindLibraryCommand20FindFrameworkLibraryB5cxx11Ev.exit unwind label %20

18:                                               ; preds = %13
  invoke void @_ZN20cmFindLibraryCommand31FindFrameworkLibraryDirsPerNameB5cxx11Ev(ptr dead_on_unwind nonnull writable sret(%"class.std::__cxx11::basic_string") align 8 %3, ptr noundef nonnull align 8 dereferenceable(600) %1)
          to label %_ZN20cmFindLibraryCommand20FindFrameworkLibraryB5cxx11Ev.exit unwind label %20

_ZN20cmFindLibraryCommand20FindFrameworkLibraryB5cxx11Ev.exit: ; preds = %17, %18
  %19 = call noundef nonnull align 8 dereferenceable(32) ptr @_ZNSt7__cxx1112basic_stringIcSt11char_traitsIcESaIcEEaSEOS4_(ptr noundef nonnull align 8 dereferenceable(32) %0, ptr noundef nonnull align 8 dereferenceable(32) %3) #17
  call void @_ZNSt7__cxx1112basic_stringIcSt11char_traitsIcESaIcEED1Ev(ptr noundef nonnull align 8 dereferenceable(32) %3) #17
  br label %22

20:                                               ; preds = %46, %45, %33, %32, %18, %17
  %21 = landingpad { ptr, i32 }
          cleanup
  call void @_ZNSt7__cxx1112basic_stringIcSt11char_traitsIcESaIcEED1Ev(ptr noundef nonnull align 8 dereferenceable(32) %0) #17
  resume { ptr, i32 } %21

22:                                               ; preds = %_ZN20cmFindLibraryCommand20FindFrameworkLibraryB5cxx11Ev.exit, %9
  %23 = call noundef zeroext i1 @_ZNKSt7__cxx1112basic_stringIcSt11char_traitsIcESaIcEE5emptyEv(ptr noundef nonnull align 8 dereferenceable(32) %0) #17
  br i1 %23, label %24, label %35

24:                                               ; preds = %22
  %25 = getelementptr inbounds i8, ptr %1, i64 369
  %26 = load i8, ptr %25, align 1
  %27 = and i8 %26, 1
  %.not4 = icmp eq i8 %27, 0
  br i1 %.not4, label %28, label %35

28:                                               ; preds = %24
  %29 = getelementptr inbounds i8, ptr %1, i64 520
  %30 = load i8, ptr %29, align 8, !noalias !34
  %31 = and i8 %30, 1
  %.not.i7 = icmp eq i8 %31, 0
  br i1 %.not.i7, label %33, label %32

32:                                               ; preds = %28
  invoke void @_ZN20cmFindLibraryCommand28FindNormalLibraryNamesPerDirB5cxx11Ev(ptr dead_on_unwind nonnull writable sret(%"class.std::__cxx11::basic_string") align 8 %4, ptr noundef nonnull align 8 dereferenceable(600) %1)
          to label %_ZN20cmFindLibraryCommand17FindNormalLibraryB5cxx11Ev.exit unwind label %20

33:                                               ; preds = %28
  invoke void @_ZN20cmFindLibraryCommand28FindNormalLibraryDirsPerNameB5cxx11Ev(ptr dead_on_unwind nonnull writable sret(%"class.std::__cxx11::basic_string") align 8 %4, ptr noundef nonnull align 8 dereferenceable(600) %1)
          to label %_ZN20cmFindLibraryCommand17FindNormalLibraryB5cxx11Ev.exit unwind label %20

_ZN20cmFindLibraryCommand17FindNormalLibraryB5cxx11Ev.exit: ; preds = %32, %33
  %34 = call noundef nonnull align 8 dereferenceable(32) ptr @_ZNSt7__cxx1112basic_stringIcSt11char_traitsIcESaIcEEaSEOS4_(ptr noundef nonnull align 8 dereferenceable(32) %0, ptr noundef nonnull align 8 dereferenceable(32) %4) #17
  call void @_ZNSt7__cxx1112basic_stringIcSt11char_traitsIcESaIcEED1Ev(ptr noundef nonnull align 8 dereferenceable(32) %4) #17
  br label %35

35:                                               ; preds = %_ZN20cmFindLibraryCommand17FindNormalLibraryB5cxx11Ev.exit, %24, %22
  %36 = call noundef zeroext i1 @_ZNKSt7__cxx1112basic_stringIcSt11char_traitsIcESaIcEE5emptyEv(ptr noundef nonnull align 8 dereferenceable(32) %0) #17
  br i1 %36, label %37, label %48

37:                                               ; preds = %35
  %38 = getelementptr inbounds i8, ptr %1, i64 370
  %39 = load i8, ptr %38, align 2
  %40 = and i8 %39, 1
  %.not5 = icmp eq i8 %40, 0
  br i1 %.not5, label %48, label %41

41:                                               ; preds = %37
  %42 = getelementptr inbounds i8, ptr %1, i64 520
  %43 = load i8, ptr %42, align 8, !noalias !37
  %44 = and i8 %43, 1
  %.not.i10 = icmp eq i8 %44, 0
  br i1 %.not.i10, label %46, label %45

45:                                               ; preds = %41
  invoke void @_ZN20cmFindLibraryCommand31FindFrameworkLibraryNamesPerDirB5cxx11Ev(ptr dead_on_unwind nonnull writable sret(%"class.std::__cxx11::basic_string") align 8 %5, ptr noundef nonnull align 8 dereferenceable(600) %1)
          to label %_ZN20cmFindLibraryCommand20FindFrameworkLibraryB5cxx11Ev.exit13 unwind label %20

46:                                               ; preds = %41
  invoke void @_ZN20cmFindLibraryCommand31FindFrameworkLibraryDirsPerNameB5cxx11Ev(ptr dead_on_unwind nonnull writable sret(%"class.std::__cxx11::basic_string") align 8 %5, ptr noundef nonnull align 8 dereferenceable(600) %1)
          to label %_ZN20cmFindLibraryCommand20FindFrameworkLibraryB5cxx11Ev.exit13 unwind label %20

_ZN20cmFindLibraryCommand20FindFrameworkLibraryB5cxx11Ev.exit13: ; preds = %45, %46
  %47 = call noundef nonnull align 8 dereferenceable(32) ptr @_ZNSt7__cxx1112basic_stringIcSt11char_traitsIcESaIcEEaSEOS4_(ptr noundef nonnull align 8 dereferenceable(32) %0, ptr noundef nonnull align 8 dereferenceable(32) %5) #17
  call void @_ZNSt7__cxx1112basic_stringIcSt11char_traitsIcESaIcEED1Ev(ptr noundef nonnull align 8 dereferenceable(32) %5) #17
  br label %48

48:                                               ; preds = %35, %37, %_ZN20cmFindLibraryCommand20FindFrameworkLibraryB5cxx11Ev.exit13
  ret void
}